target datalayout = "e-m:e-p270:32:32-p271:32:32-p272:64:64-i64:64-i128:128-f80:128-n8:16:32:64-S128"
target triple = "x86_64-unknown-linux-gnu"

%"class.std::set.0" = type { %"class.std::_Rb_tree.1" }
%"class.std::_Rb_tree.1" = type { %"struct.std::_Rb_tree<QuantLib::Observer *, QuantLib::Observer *, std::_Identity<QuantLib::Observer *>, std::less<QuantLib::Observer *>>::_Rb_tree_impl" }
%"struct.std::_Rb_tree<QuantLib::Observer *, QuantLib::Observer *, std::_Identity<QuantLib::Observer *>, std::less<QuantLib::Observer *>>::_Rb_tree_impl" = type { [8 x i8], %"struct.std::_Rb_tree_header" }
%"struct.std::_Rb_tree_header" = type { %"struct.std::_Rb_tree_node_base", i64 }
%"struct.std::_Rb_tree_node_base" = type { i32, ptr, ptr, ptr }
%"class.QuantLib::Date" = type { i64 }
%"class.boost::detail::shared_count" = type { ptr }
%"class.std::set" = type { %"class.std::_Rb_tree" }
%"class.std::_Rb_tree" = type { %"struct.std::_Rb_tree<boost::shared_ptr<QuantLib::Observable>, boost::shared_ptr<QuantLib::Observable>, std::_Identity<boost::shared_ptr<QuantLib::Observable>>, std::less<boost::shared_ptr<QuantLib::Observable>>>::_Rb_tree_impl" }
%"struct.std::_Rb_tree<boost::shared_ptr<QuantLib::Observable>, boost::shared_ptr<QuantLib::Observable>, std::_Identity<boost::shared_ptr<QuantLib::Observable>>, std::less<boost::shared_ptr<QuantLib::Observable>>>::_Rb_tree_impl" = type { [8 x i8], %"struct.std::_Rb_tree_header" }
%"class.QuantLib::Observable" = type { ptr, %"class.std::set.0" }
%"class.QuantLib::Observer" = type { ptr, %"class.std::set" }
%"class.QuantLib::CashFlow.base" = type <{ %"class.QuantLib::Event.base", %"class.QuantLib::LazyObject.base" }>
%"class.QuantLib::Event.base" = type { ptr }
%"class.QuantLib::LazyObject.base" = type <{ ptr, i8, i8, i8, i8 }>
%"class.QuantLib::DayCounter" = type { %"class.boost::shared_ptr.16" }
%"class.boost::shared_ptr.16" = type { ptr, %"class.boost::detail::shared_count" }
%"class.QuantLib::DigitalCoupon" = type <{ %"class.QuantLib::FloatingRateCoupon.base", %"class.boost::shared_ptr.52", double, double, double, double, i8, i8, i8, i8, [4 x i8], double, double, double, double, double, double, i8, i8, [2 x i8], i32, i8, [7 x i8], %"class.QuantLib::Observable", %"class.QuantLib::Observer" }>
%"class.QuantLib::FloatingRateCoupon.base" = type { %"class.QuantLib::Coupon.base", %"class.boost::shared_ptr.50", %"class.QuantLib::DayCounter", i32, double, double, i8, %"class.boost::shared_ptr.51", double }
%"class.QuantLib::Coupon.base" = type { %"class.QuantLib::CashFlow.base", %"class.QuantLib::Date", double, %"class.QuantLib::Date", %"class.QuantLib::Date", %"class.QuantLib::Date", %"class.QuantLib::Date", %"class.QuantLib::Date", double }
%"class.boost::shared_ptr.50" = type { ptr, %"class.boost::detail::shared_count" }
%"class.boost::shared_ptr.51" = type { ptr, %"class.boost::detail::shared_count" }
%"class.boost::shared_ptr.52" = type { ptr, %"class.boost::detail::shared_count" }

@.str.16 = private unnamed_addr constant [8 x i8] c"px != 0\00", align 1
@.str.17 = private unnamed_addr constant [102 x i8] c"generated/home/dtcxzyw/WorkSpace/SDK/vcpkg/installed/x64-linux/include/boost/smart_ptr/shared_ptr.hpp\00", align 1
@__PRETTY_FUNCTION__._ZNK5boost10shared_ptrIN8QuantLib18FloatingRateCouponEEptEv = private unnamed_addr constant [153 x i8] c"typename boost::detail::sp_member_access<T>::type boost::shared_ptr<QuantLib::FloatingRateCoupon>::operator->() const [T = QuantLib::FloatingRateCoupon]\00", align 1

; Function Attrs: inlinehint mustprogress nounwind uwtable
define linkonce_odr noundef double @_ZSt3absd(double noundef %__x) #5 comdat {
entry:
  %__x.addr = alloca double, align 8
  store double %__x, ptr %__x.addr, align 8, !tbaa !33
  %0 = load double, ptr %__x.addr, align 8, !tbaa !33
  %1 = call double @llvm.fabs.f64(double %0)
  ret double %1
}

; Function Attrs: mustprogress uwtable
define linkonce_odr noundef ptr @_ZNK5boost10shared_ptrIN8QuantLib18FloatingRateCouponEEptEv(ptr noundef nonnull align 8 dereferenceable(16) %this) #2 comdat align 2 {
entry:
  %this.addr = alloca ptr, align 8
  store ptr %this, ptr %this.addr, align 8, !tbaa !3
  %this1 = load ptr, ptr %this.addr, align 8
  %px = getelementptr inbounds nuw %"class.boost::shared_ptr.52", ptr %this1, i32 0, i32 0
  %0 = load ptr, ptr %px, align 8, !tbaa !64
  %cmp = icmp ne ptr %0, null
  %lnot = xor i1 %cmp, true
  %lnot2 = xor i1 %lnot, true
  %conv = zext i1 %lnot2 to i64
  %expval = call i64 @llvm.expect.i64(i64 %conv, i64 1)
  %tobool = icmp ne i64 %expval, 0
  br i1 %tobool, label %cond.true, label %cond.false

cond.true:                                        ; preds = %entry
  br label %cond.end

cond.false:                                       ; preds = %entry
  call void @_ZN5boost16assertion_failedEPKcS1_S1_l(ptr noundef @.str.16, ptr noundef @__PRETTY_FUNCTION__._ZNK5boost10shared_ptrIN8QuantLib18FloatingRateCouponEEptEv, ptr noundef @.str.17, i64 noundef 784)
  br label %cond.end

cond.end:                                         ; preds = %cond.false, %cond.true
  %px3 = getelementptr inbounds nuw %"class.boost::shared_ptr.52", ptr %this1, i32 0, i32 0
  %1 = load ptr, ptr %px3, align 8, !tbaa !64
  ret ptr %1
}

; Function Attrs: mustprogress uwtable
define noundef double @_ZNK8QuantLib13DigitalCoupon9putPayoffEv(ptr noundef nonnull align 8 dereferenceable(289) %this) #2 align 2 {
entry:
  %this.addr = alloca ptr, align 8
  %payoff = alloca double, align 8
  %underlyingRate = alloca double, align 8
  store ptr %this, ptr %this.addr, align 8, !tbaa !3
  %this1 = load ptr, ptr %this.addr, align 8
  call void @llvm.lifetime.start.p0(i64 8, ptr %payoff) #14
  store double 0.000000e+00, ptr %payoff, align 8, !tbaa !33
  %hasPutStrike_ = getelementptr inbounds nuw %"class.QuantLib::DigitalCoupon", ptr %this1, i32 0, i32 17
  %0 = load i8, ptr %hasPutStrike_, align 8, !tbaa !52, !range !15, !noundef !16
  %loadedv = trunc i8 %0 to i1
  br i1 %loadedv, label %if.then, label %if.end21

if.then:                                          ; preds = %entry
  call void @llvm.lifetime.start.p0(i64 8, ptr %underlyingRate) #14
  %underlying_ = getelementptr inbounds nuw %"class.QuantLib::DigitalCoupon", ptr %this1, i32 0, i32 1
  %call = call noundef ptr @_ZNK5boost10shared_ptrIN8QuantLib18FloatingRateCouponEEptEv(ptr noundef nonnull align 8 dereferenceable(16) %underlying_)
  %vtable = load ptr, ptr %call, align 8, !tbaa !20
  %vfn = getelementptr inbounds ptr, ptr %vtable, i64 9
  %1 = load ptr, ptr %vfn, align 8
  %call2 = call noundef double %1(ptr noundef nonnull align 8 dereferenceable(176) %call)
  store double %call2, ptr %underlyingRate, align 8, !tbaa !33
  %putStrike_ = getelementptr inbounds nuw %"class.QuantLib::DigitalCoupon", ptr %this1, i32 0, i32 3
  %2 = load double, ptr %putStrike_, align 8, !tbaa !62
  %3 = load double, ptr %underlyingRate, align 8, !tbaa !33
  %sub = fsub double %2, %3
  %cmp = fcmp ogt double %sub, 0x3C9CD2B297D889BC
  br i1 %cmp, label %if.then3, label %if.else

if.then3:                                         ; preds = %if.then
  %isPutCashOrNothing_ = getelementptr inbounds nuw %"class.QuantLib::DigitalCoupon", ptr %this1, i32 0, i32 9
  %4 = load i8, ptr %isPutCashOrNothing_, align 1, !tbaa !51, !range !15, !noundef !16
  %loadedv4 = trunc i8 %4 to i1
  br i1 %loadedv4, label %cond.true, label %cond.false

cond.true:                                        ; preds = %if.then3
  %putDigitalPayoff_ = getelementptr inbounds nuw %"class.QuantLib::DigitalCoupon", ptr %this1, i32 0, i32 12
  %5 = load double, ptr %putDigitalPayoff_, align 8, !tbaa !63
  br label %cond.end

cond.false:                                       ; preds = %if.then3
  %6 = load double, ptr %underlyingRate, align 8, !tbaa !33
  br label %cond.end

cond.end:                                         ; preds = %cond.false, %cond.true
  %cond = phi double [ %5, %cond.true ], [ %6, %cond.false ]
  store double %cond, ptr %payoff, align 8, !tbaa !33
  br label %if.end20

if.else:                                          ; preds = %if.then
  %isPutATMIncluded_ = getelementptr inbounds nuw %"class.QuantLib::DigitalCoupon", ptr %this1, i32 0, i32 7
  %7 = load i8, ptr %isPutATMIncluded_, align 1, !tbaa !49, !range !15, !noundef !16
  %loadedv5 = trunc i8 %7 to i1
  br i1 %loadedv5, label %if.then6, label %if.end19

if.then6:                                         ; preds = %if.else
  %putStrike_7 = getelementptr inbounds nuw %"class.QuantLib::DigitalCoupon", ptr %this1, i32 0, i32 3
  %8 = load double, ptr %putStrike_7, align 8, !tbaa !62
  %9 = load double, ptr %underlyingRate, align 8, !tbaa !33
  %sub8 = fsub double %8, %9
  %call9 = call noundef double @_ZSt3absd(double noundef %sub8)
  %cmp10 = fcmp ole double %call9, 0x3C9CD2B297D889BC
  br i1 %cmp10, label %if.then11, label %if.end

if.then11:                                        ; preds = %if.then6
  %isPutCashOrNothing_12 = getelementptr inbounds nuw %"class.QuantLib::DigitalCoupon", ptr %this1, i32 0, i32 9
  %10 = load i8, ptr %isPutCashOrNothing_12, align 1, !tbaa !51, !range !15, !noundef !16
  %loadedv13 = trunc i8 %10 to i1
  br i1 %loadedv13, label %cond.true14, label %cond.false16

cond.true14:                                      ; preds = %if.then11
  %putDigitalPayoff_15 = getelementptr inbounds nuw %"class.QuantLib::DigitalCoupon", ptr %this1, i32 0, i32 12
  %11 = load double, ptr %putDigitalPayoff_15, align 8, !tbaa !63
  br label %cond.end17

cond.false16:                                     ; preds = %if.then11
  %12 = load double, ptr %underlyingRate, align 8, !tbaa !33
  br label %cond.end17

cond.end17:                                       ; preds = %cond.false16, %cond.true14
  %cond18 = phi double [ %11, %cond.true14 ], [ %12, %cond.false16 ]
  store double %cond18, ptr %payoff, align 8, !tbaa !33
  br label %if.end

if.end:                                           ; preds = %cond.end17, %if.then6
  br label %if.end19

if.end19:                                         ; preds = %if.end, %if.else
  br label %if.end20

if.end20:                                         ; preds = %if.end19, %cond.end
  call void @llvm.lifetime.end.p0(i64 8, ptr %underlyingRate) #14
  br label %if.end21

if.end21:                                         ; preds = %if.end20, %entry
  %13 = load double, ptr %payoff, align 8, !tbaa !33
  call void @llvm.lifetime.end.p0(i64 8, ptr %payoff) #14
  ret double %13
}