; Function Attrs: mustprogress uwtable
define noundef double @_ZNK8QuantLib13DigitalCoupon9putPayoffEv(ptr nocapture noundef nonnull readonly align 8 dereferenceable(289) %this) local_unnamed_addr #8 align 2 {
entry:
  %hasPutStrike_ = getelementptr inbounds nuw i8, ptr %this, i64 280
  %0 = load i8, ptr %hasPutStrike_, align 8, !tbaa !70, !range !26, !noundef !27
  %loadedv = trunc nuw i8 %0 to i1
  br i1 %loadedv, label %if.then, label %if.end21

if.then:                                          ; preds = %entry
  %underlying_ = getelementptr inbounds nuw i8, ptr %this, i64 176
  %1 = load ptr, ptr %underlying_, align 8, !tbaa !50
  %cmp.not.i = icmp eq ptr %1, null
  br i1 %cmp.not.i, label %cond.false.i, label %_ZNK5boost10shared_ptrIN8QuantLib18FloatingRateCouponEEptEv.exit, !prof !52

cond.false.i:                                     ; preds = %if.then
  tail call void @_ZN5boost16assertion_failedEPKcS1_S1_l(ptr noundef nonnull @.str.16, ptr noundef nonnull @__PRETTY_FUNCTION__._ZNK5boost10shared_ptrIN8QuantLib18FloatingRateCouponEEptEv, ptr noundef nonnull @.str.17, i64 noundef 784)
  %.pre.i = load ptr, ptr %underlying_, align 8, !tbaa !50
  br label %_ZNK5boost10shared_ptrIN8QuantLib18FloatingRateCouponEEptEv.exit

_ZNK5boost10shared_ptrIN8QuantLib18FloatingRateCouponEEptEv.exit: ; preds = %if.then, %cond.false.i
  %2 = phi ptr [ %1, %if.then ], [ %.pre.i, %cond.false.i ]
  %vtable = load ptr, ptr %2, align 8, !tbaa !33
  %vfn = getelementptr inbounds i8, ptr %vtable, i64 72
  %3 = load ptr, ptr %vfn, align 8
  %call2 = tail call noundef double %3(ptr noundef nonnull align 8 dereferenceable(176) %2)
  %putStrike_ = getelementptr inbounds nuw i8, ptr %this, i64 200
  %4 = load double, ptr %putStrike_, align 8, !tbaa !87
  %sub = fsub double %4, %call2
  %cmp = fcmp ogt double %sub, 0x3C9CD2B297D889BC
  br i1 %cmp, label %if.then3, label %if.else

if.then3:                                         ; preds = %_ZNK5boost10shared_ptrIN8QuantLib18FloatingRateCouponEEptEv.exit
  %isPutCashOrNothing_ = getelementptr inbounds nuw i8, ptr %this, i64 227
  %5 = load i8, ptr %isPutCashOrNothing_, align 1, !tbaa !69, !range !26, !noundef !27
  %loadedv4 = trunc nuw i8 %5 to i1
  %putDigitalPayoff_ = getelementptr inbounds nuw i8, ptr %this, i64 240
  %6 = load double, ptr %putDigitalPayoff_, align 8
  %cond = select i1 %loadedv4, double %6, double %call2
  br label %if.end21

if.else:                                          ; preds = %_ZNK5boost10shared_ptrIN8QuantLib18FloatingRateCouponEEptEv.exit
  %isPutATMIncluded_ = getelementptr inbounds nuw i8, ptr %this, i64 225
  %7 = load i8, ptr %isPutATMIncluded_, align 1, !tbaa !67, !range !26, !noundef !27
  %loadedv5 = trunc nuw i8 %7 to i1
  %8 = tail call double @llvm.fabs.f64(double %sub)
  %cmp10 = fcmp ole double %8, 0x3C9CD2B297D889BC
  %or.cond.not = and i1 %cmp10, %loadedv5
  br i1 %or.cond.not, label %if.then11, label %if.end21

if.then11:                                        ; preds = %if.else
  %isPutCashOrNothing_12 = getelementptr inbounds nuw i8, ptr %this, i64 227
  %9 = load i8, ptr %isPutCashOrNothing_12, align 1, !tbaa !69, !range !26, !noundef !27
  %loadedv13 = trunc nuw i8 %9 to i1
  %putDigitalPayoff_15 = getelementptr inbounds nuw i8, ptr %this, i64 240
  %10 = load double, ptr %putDigitalPayoff_15, align 8
  %cond18 = select i1 %loadedv13, double %10, double %call2
  br label %if.end21

if.end21:                                         ; preds = %if.then3, %if.then11, %if.else, %entry
  %payoff.0 = phi double [ 0.000000e+00, %entry ], [ %cond, %if.then3 ], [ %cond18, %if.then11 ], [ 0.000000e+00, %if.else ]
  ret double %payoff.0
}